; ModuleID = '50/1377.c'
source_filename = "50/1377.c"
target datalayout = "e-m:e-p270:32:32-p271:32:32-p272:64:64-i64:64-f80:128-n8:16:32:64-S128"
target triple = "x86_64-pc-linux-gnu"

@.str = private unnamed_addr constant [3 x i8] c"%d\00", align 1
@day = common dso_local global i32 0, align 4
@.str.1 = private unnamed_addr constant [4 x i8] c"%d\0A\00", align 1

; Function Attrs: noinline nounwind uwtable
define dso_local i32 @main() #0 {
  %1 = alloca i32, align 4
  %2 = alloca i32, align 4
  store i32 0, i32* %1, align 4
  %3 = call i32 (i8*, ...) @__isoc99_scanf(i8* getelementptr inbounds ([3 x i8], [3 x i8]* @.str, i64 0, i64 0), i32* @day)
  store i32 1, i32* %2, align 4
  br label %4

4:                                                ; preds = %10, %0
  %5 = load i32, i32* %2, align 4
  %6 = icmp sle i32 %5, 12
  br i1 %6, label %7, label %13

7:                                                ; preds = %4
  %8 = load i32, i32* %2, align 4
  %9 = call i32 @bujili(i32 %8)
  br label %10

10:                                               ; preds = %7
  %11 = load i32, i32* %2, align 4
  %12 = add nsw i32 %11, 1
  store i32 %12, i32* %2, align 4
  br label %4

13:                                               ; preds = %4
  ret i32 0
}

declare dso_local i32 @__isoc99_scanf(i8*, ...) #1

; Function Attrs: noinline nounwind uwtable
define dso_local i32 @bujili(i32 %0) #0 {
  %2 = alloca i32, align 4
  %3 = alloca i32, align 4
  %4 = alloca i32, align 4
  %5 = alloca i32, align 4
  %6 = alloca i32, align 4
  store i32 %0, i32* %2, align 4
  store i32 0, i32* %4, align 4
  store i32 0, i32* %6, align 4
  store i32 1, i32* %3, align 4
  br label %7

7:                                                ; preds = %16, %1
  %8 = load i32, i32* %3, align 4
  %9 = load i32, i32* %2, align 4
  %10 = icmp slt i32 %8, %9
  br i1 %10, label %11, label %19

11:                                               ; preds = %7
  %12 = load i32, i32* %3, align 4
  %13 = call i32 @tianshu(i32 %12)
  %14 = load i32, i32* %4, align 4
  %15 = add nsw i32 %14, %13
  store i32 %15, i32* %4, align 4
  br label %16

16:                                               ; preds = %11
  %17 = load i32, i32* %3, align 4
  %18 = add nsw i32 %17, 1
  store i32 %18, i32* %3, align 4
  br label %7

19:                                               ; preds = %7
  %20 = load i32, i32* %4, align 4
  %21 = add nsw i32 %20, 12
  store i32 %21, i32* %4, align 4
  %22 = load i32, i32* %4, align 4
  %23 = srem i32 %22, 7
  %24 = load i32, i32* @day, align 4
  %25 = add nsw i32 %23, %24
  %26 = srem i32 %25, 7
  store i32 %26, i32* %5, align 4
  %27 = load i32, i32* %5, align 4
  %28 = icmp eq i32 %27, 5
  br i1 %28, label %29, label %32

29:                                               ; preds = %19
  %30 = load i32, i32* %2, align 4
  %31 = call i32 (i8*, ...) @printf(i8* getelementptr inbounds ([4 x i8], [4 x i8]* @.str.1, i64 0, i64 0), i32 %30)
  br label %32

32:                                               ; preds = %29, %19
  %33 = load i32, i32* %6, align 4
  ret i32 %33
}

; Function Attrs: noinline nounwind uwtable
define dso_local i32 @tianshu(i32 %0) #0 {
  %2 = alloca i32, align 4
  %3 = alloca i32, align 4
  store i32 %0, i32* %2, align 4
  store i32 31, i32* %3, align 4
  %4 = load i32, i32* %2, align 4
  %5 = icmp eq i32 %4, 2
  br i1 %5, label %6, label %7

6:                                                ; preds = %1
  store i32 28, i32* %3, align 4
  br label %7

7:                                                ; preds = %6, %1
  %8 = load i32, i32* %2, align 4
  %9 = icmp eq i32 %8, 4
  br i1 %9, label %19, label %10

10:                                               ; preds = %7
  %11 = load i32, i32* %2, align 4
  %12 = icmp eq i32 %11, 6
  br i1 %12, label %19, label %13

13:                                               ; preds = %10
  %14 = load i32, i32* %2, align 4
  %15 = icmp eq i32 %14, 9
  br i1 %15, label %19, label %16

16:                                               ; preds = %13
  %17 = load i32, i32* %2, align 4
  %18 = icmp eq i32 %17, 11
  br i1 %18, label %19, label %22

19:                                               ; preds = %16, %13, %10, %7
  %20 = load i32, i32* %3, align 4
  %21 = sub nsw i32 %20, 1
  store i32 %21, i32* %3, align 4
  br label %22

22:                                               ; preds = %19, %16
  %23 = load i32, i32* %3, align 4
  ret i32 %23
}

declare dso_local i32 @printf(i8*, ...) #1


!llvm.module.flags = !{!0}
!llvm.ident = !{!1}

!0 = !{i32 1, !"wchar_size", i32 4}
!1 = !{!"clang version 10.0.0-4ubuntu1 "}
